target datalayout = "e-m:e-p270:32:32-p271:32:32-p272:64:64-i64:64-i128:128-f80:128-n8:16:32:64-S128"
target triple = "x86_64-pc-linux-gnu"

; Function Attrs: nounwind uwtable
define dso_local void @clusterCommandHelp(ptr noundef %0) #0 {
  %2 = alloca ptr, align 8
  %3 = alloca [23 x ptr], align 16
  store ptr %0, ptr %2, align 8, !tbaa !53
  call void @llvm.lifetime.start.p0(i64 184, ptr %3) #14
  call void @llvm.memcpy.p0.p0.i64(ptr align 16 %3, ptr align 16 @__const.clusterCommandHelp.help, i64 184, i1 false)
  %4 = load ptr, ptr %2, align 8, !tbaa !53
  %5 = getelementptr inbounds [23 x ptr], ptr %3, i64 0, i64 0
  %6 = call ptr @clusterCommandExtendedHelp()
  call void @addExtendedReplyHelp(ptr noundef %4, ptr noundef %5, ptr noundef %6)
  call void @llvm.lifetime.end.p0(i64 184, ptr %3) #14
  ret void
}