; Function Attrs: nounwind uwtable
define dso_local void @clusterCommandHelp(ptr noundef %0) local_unnamed_addr #0 {
  %2 = alloca [23 x ptr], align 16
  call void @llvm.lifetime.start.p0(i64 184, ptr nonnull %2) #16
  call void @llvm.memcpy.p0.p0.i64(ptr noundef nonnull align 16 dereferenceable(184) %2, ptr noundef nonnull align 16 dereferenceable(184) @__const.clusterCommandHelp.help, i64 184, i1 false)
  %3 = tail call ptr @clusterCommandExtendedHelp() #16
  call void @addExtendedReplyHelp(ptr noundef %0, ptr noundef nonnull %2, ptr noundef %3) #16
  call void @llvm.lifetime.end.p0(i64 184, ptr nonnull %2) #16
  ret void
}